target datalayout = "e-m:e-p270:32:32-p271:32:32-p272:64:64-i64:64-i128:128-f80:128-n8:16:32:64-S128"
target triple = "x86_64-pc-linux-gnu"

%struct.RelationData = type { %struct.RelFileLocator, ptr, i32, i32, i8, i8, i8, i8, i8, i32, i32, i32, i32, ptr, ptr, i32, %struct.LockInfoData, ptr, ptr, ptr, ptr, ptr, i8, ptr, ptr, ptr, ptr, ptr, ptr, i32, ptr, i8, ptr, ptr, i32, i8, i32, ptr, i8, ptr, ptr, ptr, ptr, ptr, ptr, ptr, i32, ptr, ptr, ptr, ptr, ptr, ptr, ptr, ptr, ptr, ptr, ptr, ptr, ptr, ptr, ptr, ptr, ptr, ptr, ptr, i32, i8, ptr }
%struct.RelFileLocator = type { i32, i32, i32 }
%struct.LockInfoData = type { %struct.LockRelId }
%struct.LockRelId = type { i32, i32 }
%struct.FormData_pg_class = type { i32, %struct.nameData, i32, i32, i32, i32, i32, i32, i32, i32, float, i32, i32, i8, i8, i8, i8, i16, i16, i8, i8, i8, i8, i8, i8, i8, i8, i32, i32, i32 }
%struct.nameData = type { [64 x i8] }
%struct.GenericXLogState = type { [4 x %union.PGIOAlignedBlock], [4 x %struct.GenericXLogPageData], i8, [3967 x i8] }
%union.PGIOAlignedBlock = type { double, [8184 x i8] }
%struct.GenericXLogPageData = type { i32, i32, i32, ptr, [8200 x i8] }

@wal_level = external global i32, align 4

; Function Attrs: nounwind uwtable
define dso_local ptr @GenericXLogStart(ptr noundef %0) #0 {
  %2 = alloca ptr, align 8
  %3 = alloca ptr, align 8
  %4 = alloca i32, align 4
  store ptr %0, ptr %2, align 8
  call void @llvm.lifetime.start.p0(i64 8, ptr %3) #7
  call void @llvm.lifetime.start.p0(i64 4, ptr %4) #7
  %5 = call ptr @palloc_aligned(i64 noundef 69632, i64 noundef 4096, i32 noundef 0)
  store ptr %5, ptr %3, align 8
  %6 = load ptr, ptr %2, align 8
  %7 = getelementptr inbounds nuw %struct.RelationData, ptr %6, i32 0, i32 13
  %8 = load ptr, ptr %7, align 8
  %9 = getelementptr inbounds nuw %struct.FormData_pg_class, ptr %8, i32 0, i32 15
  %10 = load i8, ptr %9, align 2
  %11 = sext i8 %10 to i32
  %12 = icmp eq i32 %11, 112
  br i1 %12, label %13, label %30

13:                                               ; preds = %1
  %14 = load i32, ptr @wal_level, align 4
  %15 = icmp sge i32 %14, 1
  br i1 %15, label %28, label %16

16:                                               ; preds = %13
  %17 = load ptr, ptr %2, align 8
  %18 = getelementptr inbounds nuw %struct.RelationData, ptr %17, i32 0, i32 9
  %19 = load i32, ptr %18, align 8
  %20 = icmp eq i32 %19, 0
  br i1 %20, label %21, label %26

21:                                               ; preds = %16
  %22 = load ptr, ptr %2, align 8
  %23 = getelementptr inbounds nuw %struct.RelationData, ptr %22, i32 0, i32 11
  %24 = load i32, ptr %23, align 8
  %25 = icmp eq i32 %24, 0
  br label %26

26:                                               ; preds = %21, %16
  %27 = phi i1 [ false, %16 ], [ %25, %21 ]
  br label %28

28:                                               ; preds = %26, %13
  %29 = phi i1 [ true, %13 ], [ %27, %26 ]
  br label %30

30:                                               ; preds = %28, %1
  %31 = phi i1 [ false, %1 ], [ %29, %28 ]
  %32 = load ptr, ptr %3, align 8
  %33 = getelementptr inbounds nuw %struct.GenericXLogState, ptr %32, i32 0, i32 2
  %34 = zext i1 %31 to i8
  store i8 %34, ptr %33, align 128
  store i32 0, ptr %4, align 4
  br label %35

35:                                               ; preds = %57, %30
  %36 = load i32, ptr %4, align 4
  %37 = icmp slt i32 %36, 4
  br i1 %37, label %38, label %60

38:                                               ; preds = %35
  %39 = load ptr, ptr %3, align 8
  %40 = getelementptr inbounds nuw %struct.GenericXLogState, ptr %39, i32 0, i32 0
  %41 = load i32, ptr %4, align 4
  %42 = sext i32 %41 to i64
  %43 = getelementptr inbounds [4 x %union.PGIOAlignedBlock], ptr %40, i64 0, i64 %42
  %44 = getelementptr inbounds [8192 x i8], ptr %43, i64 0, i64 0
  %45 = load ptr, ptr %3, align 8
  %46 = getelementptr inbounds nuw %struct.GenericXLogState, ptr %45, i32 0, i32 1
  %47 = load i32, ptr %4, align 4
  %48 = sext i32 %47 to i64
  %49 = getelementptr inbounds [4 x %struct.GenericXLogPageData], ptr %46, i64 0, i64 %48
  %50 = getelementptr inbounds nuw %struct.GenericXLogPageData, ptr %49, i32 0, i32 3
  store ptr %44, ptr %50, align 16
  %51 = load ptr, ptr %3, align 8
  %52 = getelementptr inbounds nuw %struct.GenericXLogState, ptr %51, i32 0, i32 1
  %53 = load i32, ptr %4, align 4
  %54 = sext i32 %53 to i64
  %55 = getelementptr inbounds [4 x %struct.GenericXLogPageData], ptr %52, i64 0, i64 %54
  %56 = getelementptr inbounds nuw %struct.GenericXLogPageData, ptr %55, i32 0, i32 0
  store i32 0, ptr %56, align 32
  br label %57

57:                                               ; preds = %38
  %58 = load i32, ptr %4, align 4
  %59 = add i32 %58, 1
  store i32 %59, ptr %4, align 4
  br label %35, !llvm.loop !4

60:                                               ; preds = %35
  %61 = load ptr, ptr %3, align 8
  call void @llvm.lifetime.end.p0(i64 4, ptr %4) #7
  call void @llvm.lifetime.end.p0(i64 8, ptr %3) #7
  ret ptr %61
}