; Function Attrs: nounwind uwtable
define dso_local ptr @GenericXLogStart(ptr noundef readonly captures(none) %0) local_unnamed_addr #0 {
  %2 = tail call ptr @palloc_aligned(i64 noundef 69632, i64 noundef 4096, i32 noundef 0) #8
  %3 = getelementptr inbounds nuw i8, ptr %0, i64 56
  %4 = load ptr, ptr %3, align 8
  %5 = getelementptr inbounds nuw i8, ptr %4, i64 114
  %6 = load i8, ptr %5, align 2
  %7 = icmp eq i8 %6, 112
  br i1 %7, label %8, label %20

8:                                                ; preds = %1
  %9 = load i32, ptr @wal_level, align 4
  %10 = icmp sgt i32 %9, 0
  br i1 %10, label %20, label %11

11:                                               ; preds = %8
  %12 = getelementptr inbounds nuw i8, ptr %0, i64 40
  %13 = load i32, ptr %12, align 8
  %14 = icmp eq i32 %13, 0
  br i1 %14, label %15, label %20

15:                                               ; preds = %11
  %16 = getelementptr inbounds nuw i8, ptr %0, i64 48
  %17 = load i32, ptr %16, align 8
  %18 = icmp eq i32 %17, 0
  %19 = zext i1 %18 to i8
  br label %20

20:                                               ; preds = %8, %15, %11, %1
  %21 = phi i8 [ 0, %1 ], [ 1, %8 ], [ 0, %11 ], [ %19, %15 ]
  %22 = getelementptr inbounds nuw i8, ptr %2, i64 65664
  store i8 %21, ptr %22, align 128
  %23 = getelementptr inbounds nuw i8, ptr %2, i64 32768
  br label %24

24:                                               ; preds = %20, %24
  %indvars.iv = phi i64 [ 0, %20 ], [ %indvars.iv.next, %24 ]
  %25 = getelementptr inbounds nuw [4 x %union.PGIOAlignedBlock], ptr %2, i64 0, i64 %indvars.iv
  %26 = getelementptr inbounds nuw [4 x %struct.GenericXLogPageData], ptr %23, i64 0, i64 %indvars.iv
  %27 = getelementptr inbounds nuw i8, ptr %26, i64 16
  store ptr %25, ptr %27, align 16
  store i32 0, ptr %26, align 32
  %indvars.iv.next = add nuw nsw i64 %indvars.iv, 1
  %exitcond.not = icmp eq i64 %indvars.iv.next, 4
  br i1 %exitcond.not, label %28, label %24, !llvm.loop !4

28:                                               ; preds = %24
  ret ptr %2
}